target datalayout = "e-m:e-p270:32:32-p271:32:32-p272:64:64-i64:64-i128:128-f80:128-n8:16:32:64-S128"
target triple = "x86_64-pc-linux-gnu"

%struct.siphash_data_st = type { ptr, %struct.siphash_st, %struct.siphash_st, i32, i32 }
%struct.siphash_st = type { i64, i64, i64, i64, i64, i32, i32, i32, i32, [8 x i8] }

@.str.1 = private unnamed_addr constant [5 x i8] c"size\00", align 1
@.str.2 = private unnamed_addr constant [9 x i8] c"c-rounds\00", align 1
@.str.3 = private unnamed_addr constant [9 x i8] c"d-rounds\00", align 1

; Function Attrs: nounwind uwtable
define internal i32 @drounds(ptr noundef %0) #0 {
  %2 = alloca ptr, align 8
  store ptr %0, ptr %2, align 8, !tbaa !7
  %3 = load ptr, ptr %2, align 8, !tbaa !7
  %4 = getelementptr inbounds nuw %struct.siphash_data_st, ptr %3, i32 0, i32 4
  %5 = load i32, ptr %4, align 4, !tbaa !30
  %6 = icmp ne i32 %5, 0
  br i1 %6, label %7, label %11

7:                                                ; preds = %1
  %8 = load ptr, ptr %2, align 8, !tbaa !7
  %9 = getelementptr inbounds nuw %struct.siphash_data_st, ptr %8, i32 0, i32 4
  %10 = load i32, ptr %9, align 4, !tbaa !30
  br label %12

11:                                               ; preds = %1
  br label %12

12:                                               ; preds = %11, %7
  %13 = phi i32 [ %10, %7 ], [ 4, %11 ]
  ret i32 %13
}

; Function Attrs: nounwind uwtable
define internal i32 @crounds(ptr noundef %0) #0 {
  %2 = alloca ptr, align 8
  store ptr %0, ptr %2, align 8, !tbaa !7
  %3 = load ptr, ptr %2, align 8, !tbaa !7
  %4 = getelementptr inbounds nuw %struct.siphash_data_st, ptr %3, i32 0, i32 3
  %5 = load i32, ptr %4, align 8, !tbaa !29
  %6 = icmp ne i32 %5, 0
  br i1 %6, label %7, label %11

7:                                                ; preds = %1
  %8 = load ptr, ptr %2, align 8, !tbaa !7
  %9 = getelementptr inbounds nuw %struct.siphash_data_st, ptr %8, i32 0, i32 3
  %10 = load i32, ptr %9, align 8, !tbaa !29
  br label %12

11:                                               ; preds = %1
  br label %12

12:                                               ; preds = %11, %7
  %13 = phi i32 [ %10, %7 ], [ 2, %11 ]
  ret i32 %13
}

; Function Attrs: nounwind uwtable
define internal i64 @siphash_size(ptr noundef %0) #0 {
  %2 = alloca ptr, align 8
  %3 = alloca ptr, align 8
  store ptr %0, ptr %2, align 8, !tbaa !3
  call void @llvm.lifetime.start.p0(i64 8, ptr %3) #5
  %4 = load ptr, ptr %2, align 8, !tbaa !3
  store ptr %4, ptr %3, align 8, !tbaa !7
  %5 = load ptr, ptr %3, align 8, !tbaa !7
  %6 = getelementptr inbounds nuw %struct.siphash_data_st, ptr %5, i32 0, i32 1
  %7 = call i64 @SipHash_hash_size(ptr noundef %6)
  call void @llvm.lifetime.end.p0(i64 8, ptr %3) #5
  ret i64 %7
}

; Function Attrs: nounwind uwtable
define internal i32 @siphash_get_ctx_params(ptr noundef %0, ptr noundef %1) #0 {
  %3 = alloca i32, align 4
  %4 = alloca ptr, align 8
  %5 = alloca ptr, align 8
  %6 = alloca ptr, align 8
  %7 = alloca ptr, align 8
  %8 = alloca i32, align 4
  store ptr %0, ptr %4, align 8, !tbaa !3
  store ptr %1, ptr %5, align 8, !tbaa !20
  call void @llvm.lifetime.start.p0(i64 8, ptr %6) #5
  %9 = load ptr, ptr %4, align 8, !tbaa !3
  store ptr %9, ptr %6, align 8, !tbaa !7
  call void @llvm.lifetime.start.p0(i64 8, ptr %7) #5
  %10 = load ptr, ptr %5, align 8, !tbaa !20
  %11 = call ptr @OSSL_PARAM_locate(ptr noundef %10, ptr noundef @.str.1)
  store ptr %11, ptr %7, align 8, !tbaa !20
  %12 = icmp ne ptr %11, null
  br i1 %12, label %13, label %20

13:                                               ; preds = %2
  %14 = load ptr, ptr %7, align 8, !tbaa !20
  %15 = load ptr, ptr %4, align 8, !tbaa !3
  %16 = call i64 @siphash_size(ptr noundef %15)
  %17 = call i32 @OSSL_PARAM_set_size_t(ptr noundef %14, i64 noundef %16)
  %18 = icmp ne i32 %17, 0
  br i1 %18, label %20, label %19

19:                                               ; preds = %13
  store i32 0, ptr %3, align 4
  store i32 1, ptr %8, align 4
  br label %43

20:                                               ; preds = %13, %2
  %21 = load ptr, ptr %5, align 8, !tbaa !20
  %22 = call ptr @OSSL_PARAM_locate(ptr noundef %21, ptr noundef @.str.2)
  store ptr %22, ptr %7, align 8, !tbaa !20
  %23 = icmp ne ptr %22, null
  br i1 %23, label %24, label %31

24:                                               ; preds = %20
  %25 = load ptr, ptr %7, align 8, !tbaa !20
  %26 = load ptr, ptr %6, align 8, !tbaa !7
  %27 = call i32 @crounds(ptr noundef %26)
  %28 = call i32 @OSSL_PARAM_set_uint(ptr noundef %25, i32 noundef %27)
  %29 = icmp ne i32 %28, 0
  br i1 %29, label %31, label %30

30:                                               ; preds = %24
  store i32 0, ptr %3, align 4
  store i32 1, ptr %8, align 4
  br label %43

31:                                               ; preds = %24, %20
  %32 = load ptr, ptr %5, align 8, !tbaa !20
  %33 = call ptr @OSSL_PARAM_locate(ptr noundef %32, ptr noundef @.str.3)
  store ptr %33, ptr %7, align 8, !tbaa !20
  %34 = icmp ne ptr %33, null
  br i1 %34, label %35, label %42

35:                                               ; preds = %31
  %36 = load ptr, ptr %7, align 8, !tbaa !20
  %37 = load ptr, ptr %6, align 8, !tbaa !7
  %38 = call i32 @drounds(ptr noundef %37)
  %39 = call i32 @OSSL_PARAM_set_uint(ptr noundef %36, i32 noundef %38)
  %40 = icmp ne i32 %39, 0
  br i1 %40, label %42, label %41

41:                                               ; preds = %35
  store i32 0, ptr %3, align 4
  store i32 1, ptr %8, align 4
  br label %43

42:                                               ; preds = %35, %31
  store i32 1, ptr %3, align 4
  store i32 1, ptr %8, align 4
  br label %43

43:                                               ; preds = %42, %41, %30, %19
  call void @llvm.lifetime.end.p0(i64 8, ptr %7) #5
  call void @llvm.lifetime.end.p0(i64 8, ptr %6) #5
  %44 = load i32, ptr %3, align 4
  ret i32 %44
}