; Function Attrs: nounwind uwtable
define internal range(i32 0, 2) i32 @siphash_get_ctx_params(ptr noundef %0, ptr noundef %1) #0 {
  %3 = tail call ptr @OSSL_PARAM_locate(ptr noundef %1, ptr noundef nonnull @.str.1) #5
  %.not = icmp eq ptr %3, null
  br i1 %.not, label %8, label %4

4:                                                ; preds = %2
  %5 = getelementptr inbounds nuw i8, ptr %0, i64 8
  %6 = tail call i64 @SipHash_hash_size(ptr noundef nonnull %5) #5
  %7 = tail call i32 @OSSL_PARAM_set_size_t(ptr noundef nonnull %3, i64 noundef %6) #5
  %.not13 = icmp eq i32 %7, 0
  br i1 %.not13, label %19, label %8

8:                                                ; preds = %4, %2
  %9 = tail call ptr @OSSL_PARAM_locate(ptr noundef %1, ptr noundef nonnull @.str.2) #5
  %.not14 = icmp eq ptr %9, null
  br i1 %.not14, label %13, label %10

10:                                               ; preds = %8
  %11 = getelementptr i8, ptr %0, i64 136
  %.val = load i32, ptr %11, align 8, !tbaa !17
  %.not.i = icmp eq i32 %.val, 0
  %spec.select.i = select i1 %.not.i, i32 2, i32 %.val
  %12 = tail call i32 @OSSL_PARAM_set_uint(ptr noundef nonnull %9, i32 noundef %spec.select.i) #5
  %.not15 = icmp eq i32 %12, 0
  br i1 %.not15, label %19, label %13

13:                                               ; preds = %10, %8
  %14 = tail call ptr @OSSL_PARAM_locate(ptr noundef %1, ptr noundef nonnull @.str.3) #5
  %.not16 = icmp eq ptr %14, null
  br i1 %.not16, label %18, label %15

15:                                               ; preds = %13
  %16 = getelementptr i8, ptr %0, i64 140
  %.val18 = load i32, ptr %16, align 4, !tbaa !18
  %.not.i19 = icmp eq i32 %.val18, 0
  %spec.select.i20 = select i1 %.not.i19, i32 4, i32 %.val18
  %17 = tail call i32 @OSSL_PARAM_set_uint(ptr noundef nonnull %14, i32 noundef %spec.select.i20) #5
  %.not17 = icmp eq i32 %17, 0
  br i1 %.not17, label %19, label %18

18:                                               ; preds = %15, %13
  br label %19

19:                                               ; preds = %15, %10, %4, %18
  %.0 = phi i32 [ 1, %18 ], [ 0, %4 ], [ 0, %10 ], [ 0, %15 ]
  ret i32 %.0
}